
Allocating common symbols
Common symbol       size              file

vic_spi_slave       0x18              ../spi/cadence_qspi.o
spi_priv            0x48              ../spi/cadence_qspi.o
cadence_spi4x_func  0x10              ../spi/cadence_qspi.o
operations          0x8               ../spi/spi.o
cadence_plat        0x40              ../spi/cadence_qspi.o

Memory Configuration

Name             Origin             Length             Attributes
rom              0x0000000018000000 0x0000000000010000 xr
ram              0x0000000018010000 0x0000000000008000 xrw
*default*        0x0000000000000000 0xffffffffffffffff

Linker script and memory map

LOAD ../boot/start.o
LOAD ../boot/bootmain.o
LOAD ../boot/trap.o
LOAD ../uart/uart.o
LOAD ../common/util.o
LOAD ../spi/spi.o
LOAD ../spi/spi_probe.o
LOAD ../spi/cadence_qspi.o
LOAD ../spi/spi_flash.o
LOAD ../spi/cadence_qspi_apb.o
LOAD ../timer/timer.o
LOAD /home/wyh/freedomstudio/SiFive/riscv64-unknown-elf-gcc-8.3.0-2019.08.0/bin/../lib/gcc/riscv64-unknown-elf/8.3.0/rv64imafdc/lp64d/libgcc.a
LOAD /home/wyh/freedomstudio/SiFive/riscv64-unknown-elf-gcc-8.3.0-2019.08.0/bin/../lib/gcc/riscv64-unknown-elf/8.3.0/../../../../riscv64-unknown-elf/lib/rv64imafdc/lp64d/libc_nano.a
LOAD /home/wyh/freedomstudio/SiFive/riscv64-unknown-elf-gcc-8.3.0-2019.08.0/bin/../lib/gcc/riscv64-unknown-elf/8.3.0/rv64imafdc/lp64d/libgcc.a
START GROUP
LOAD /home/wyh/freedomstudio/SiFive/riscv64-unknown-elf-gcc-8.3.0-2019.08.0/bin/../lib/gcc/riscv64-unknown-elf/8.3.0/rv64imafdc/lp64d/libgcc.a
LOAD /home/wyh/freedomstudio/SiFive/riscv64-unknown-elf-gcc-8.3.0-2019.08.0/bin/../lib/gcc/riscv64-unknown-elf/8.3.0/../../../../riscv64-unknown-elf/lib/rv64imafdc/lp64d/libc_nano.a
LOAD /home/wyh/freedomstudio/SiFive/riscv64-unknown-elf-gcc-8.3.0-2019.08.0/bin/../lib/gcc/riscv64-unknown-elf/8.3.0/../../../../riscv64-unknown-elf/lib/rv64imafdc/lp64d/libgloss_nano.a
END GROUP
                0x0000000000000800                __stack_size = DEFINED (__stack_size)?__stack_size:0x800

.init           0x0000000018000000       0xe0
 *(SORT_NONE(.init))
 .init          0x0000000018000000       0xe0 ../boot/start.o
                0x0000000018000000                _start

.text           0x0000000018000100     0x21aa
                [!provide]                        PROVIDE (_ftext = .)
 *(.text.unlikely .text.unlikely.*)
 *(.text.startup .text.startup.*)
 *(.text .text.*)
 .text          0x0000000018000100        0x0 ../boot/start.o
 .text          0x0000000018000100      0x19e ../boot/bootmain.o
                0x00000000180001d0                start2run32
                0x00000000180001dc                load_and_run_ddr
                0x0000000018000206                boot_from_spi
                0x0000000018000230                BootMain
 .text          0x000000001800029e       0x36 ../boot/trap.o
                0x000000001800029e                handle_trap
                0x00000000180002c0                trap_entry
 .text          0x00000000180002d4      0x8b0 ../uart/uart.o
                0x00000000180002d4                __serial_tstc
                0x00000000180002f4                serial_tstc
                0x00000000180002f6                uart_init
                0x00000000180006e6                _putc
                0x0000000018000710                rlSendString
                0x0000000018000746                CtrlBreak
                0x0000000018000776                serial_getc
                0x000000001800079e                serial_gets
                0x000000001800086c                _puts
                0x000000001800086e                print_ubyte_hex
                0x00000000180008b2                serial_nowait_getc
                0x00000000180008de                vnprintf
                0x0000000018000b60                printk
 .text          0x0000000018000b84       0xae ../common/util.o
                0x0000000018000b84                sys_memcpy
                0x0000000018000b9c                sys_memcmp
                0x0000000018000bd8                _memcpy
                0x0000000018000bfa                sys_memcpy_32
                0x0000000018000c10                sys_memset
                0x0000000018000c20                sys_memset32
 .text          0x0000000018000c32       0x5c ../spi/spi.o
                0x0000000018000c32                spi_register
                0x0000000018000c42                spi_unregister
                0x0000000018000c52                spi_setup_slave
                0x0000000018000c6c                spi_xfer
 .text          0x0000000018000c8e      0x166 ../spi/spi_probe.o
                0x0000000018000c8e                spi_flash_probe_nor
                0x0000000018000da0                spi_flash_probe
 .text          0x0000000018000df4      0x4ca ../spi/cadence_qspi.o
                0x0000000018000e48                cadence_spi4x_setup_slave
                0x00000000180011c4                cadence_qspi_init
 .text          0x00000000180012be      0x7a4 ../spi/spi_flash.o
                0x000000001800131e                spi_flash_cmd
                0x000000001800133c                spi_flash_cmd_read
                0x0000000018001344                spi_flash_cmd_write
                0x000000001800134a                spi_flash_cmd_write_enable
                0x000000001800136c                spi_flash_cmd_write_status_enable
                0x0000000018001390                spi_flash_cmd_write_disable
                0x00000000180013b0                spi_flash_cmd_read_status
                0x00000000180013f4                spi_flash_cmd_poll_bit
                0x000000001800145a                spi_flash_cmd_wait_ready
                0x0000000018001460                spi_flash_cmd_poll_enable
                0x00000000180014ba                spi_flash_cmd_status_poll_enable
                0x0000000018001518                spi_flash_cmd_wait_enable
                0x000000001800151e                spi_flash_write_status
                0x00000000180015be                spi_flash_write_status_bit
                0x0000000018001646                spi_flash_protect
                0x000000001800166a                spi_flash_cmd_erase
                0x000000001800177a                spi_flash_erase_mode
                0x00000000180017ae                spi_flash_cmd_write_mode
                0x000000001800196e                spi_flash_read_common
                0x0000000018001978                spi_flash_cmd_read_fast
                0x00000000180019b8                spi_flash_read_mode
 .text          0x0000000018001a62      0x812 ../spi/cadence_qspi_apb.o
                0x0000000018001ade                cadence_qspi_apb_controller_enable
                0x0000000018001aec                cadence_qspi_apb_controller_disable
                0x0000000018001af8                cadence_qspi_apb_readdata_capture
                0x0000000018001b30                cadence_qspi_apb_config_baudrate_div
                0x0000000018001b84                cadence_qspi_apb_set_clk_mode
                0x0000000018001bb0                cadence_qspi_apb_chipselect
                0x0000000018001bfa                cadence_qspi_apb_delay
                0x0000000018001c20                cadence_qspi_apb_controller_init
                0x0000000018001c90                cadence_qspi_apb_command_read
                0x0000000018001d3c                cadence_qspi_apb_command_write
                0x0000000018001e46                cadence_qspi_apb_indirect_read_setup
                0x0000000018001eee                cadence_qspi_apb_indirect_read_execute
                0x0000000018002048                cadence_qspi_apb_indirect_write_setup
                0x00000000180020d8                cadence_qspi_apb_indirect_write_execute
 .text          0x0000000018002274       0x36 ../timer/timer.o
                0x0000000018002274                usec_to_tick
                0x0000000018002286                udelay
 *(.gnu.linkonce.t.*)
                [!provide]                        PROVIDE (__etext = .)
                [!provide]                        PROVIDE (_etext = .)
                [!provide]                        PROVIDE (etext = .)

.rodata         0x00000000180022c0      0x158
 *(.rdata)
 *(.rodata .rodata.*)
 .rodata.str1.8
                0x00000000180022c0       0x35 ../boot/bootmain.o
 *fill*         0x00000000180022f5        0x3 
 .rodata.str1.8
                0x00000000180022f8       0x1b ../boot/trap.o
 *fill*         0x0000000018002313        0x5 
 .rodata        0x0000000018002318       0x88 ../uart/uart.o
 .rodata.str1.8
                0x00000000180023a0        0xb ../uart/uart.o
 *fill*         0x00000000180023ab        0x5 
 .rodata        0x00000000180023b0       0x30 ../spi/spi_probe.o
 .rodata.str1.8
                0x00000000180023e0       0x1f ../spi/spi_probe.o
 *fill*         0x00000000180023ff        0x1 
 .rodata.str1.8
                0x0000000018002400       0x18 ../spi/cadence_qspi_apb.o
                                         0x14 (size before relaxing)
 *(.gnu.linkonce.r.*)

.rela.dyn       0x0000000018002418        0x0
 .rela.init     0x0000000018002418        0x0 ../boot/start.o
 .rela.text     0x0000000018002418        0x0 ../boot/start.o

.eh_frame       0x0000000018002440        0x0
 *(.eh_frame)

.srodata        0x0000000018002440        0x0
 *(.srodata.cst16)
 *(.srodata.cst8)
 *(.srodata.cst4)
 *(.srodata.cst2)
 *(.srodata.*)

.data           0x0000000018010000        0x0 load address 0x0000000018002440
 *(.data .data.* .gnu.linkonce.d.*)
 .data          0x0000000018010000        0x0 ../boot/start.o
 .data          0x0000000018010000        0x0 ../boot/bootmain.o
 .data          0x0000000018010000        0x0 ../boot/trap.o
 .data          0x0000000018010000        0x0 ../uart/uart.o
 .data          0x0000000018010000        0x0 ../common/util.o
 .data          0x0000000018010000        0x0 ../spi/spi.o
 .data          0x0000000018010000        0x0 ../spi/spi_probe.o
 .data          0x0000000018010000        0x0 ../spi/cadence_qspi.o
 .data          0x0000000018010000        0x0 ../spi/spi_flash.o
 .data          0x0000000018010000        0x0 ../spi/cadence_qspi_apb.o
 .data          0x0000000018010000        0x0 ../timer/timer.o
                0x0000000018010000                . = ALIGN (0x8)
                [!provide]                        PROVIDE (__global_pointer$ = (. + 0x800))
 *(.tohost)

.sdata          0x0000000018010000        0x0 load address 0x0000000018002440
 *(.sdata .sdata.* .gnu.linkonce.s.*)
                0x0000000018010000                PROVIDE (_data = ADDR (.data))
                0x0000000018002440                PROVIDE (_data_lma = LOADADDR (.data))
                0x0000000018010000                PROVIDE (_edata = .)
                0x0000000018010000                . = ALIGN (0x8)
                0x0000000018010000                PROVIDE (_bss_start = .)

.bss            0x0000000018010000       0xf8 load address 0x0000000018002440
 *(.sbss*)
 .sbss          0x0000000018010000        0x4 ../uart/uart.o
                0x0000000018010000                uart_id
 .sbss          0x0000000018010004        0x4 ../spi/spi_probe.o
 *(.gnu.linkonce.sb.*)
 *(.bss .bss.*)
 .bss           0x0000000018010008        0x0 ../boot/start.o
 .bss           0x0000000018010008        0x0 ../boot/bootmain.o
 .bss           0x0000000018010008        0x0 ../boot/trap.o
 .bss           0x0000000018010008        0x0 ../uart/uart.o
 .bss           0x0000000018010008        0x0 ../common/util.o
 .bss           0x0000000018010008        0x0 ../spi/spi.o
 .bss           0x0000000018010008       0x38 ../spi/spi_probe.o
 .bss           0x0000000018010040        0x0 ../spi/cadence_qspi.o
 .bss           0x0000000018010040        0x0 ../spi/spi_flash.o
 .bss           0x0000000018010040        0x0 ../spi/cadence_qspi_apb.o
 .bss           0x0000000018010040        0x0 ../timer/timer.o
 *(.gnu.linkonce.b.*)
 *(COMMON)
 COMMON         0x0000000018010040        0x8 ../spi/spi.o
                0x0000000018010040                operations
 COMMON         0x0000000018010048       0xb0 ../spi/cadence_qspi.o
                0x0000000018010048                vic_spi_slave
                0x0000000018010060                spi_priv
                0x00000000180100a8                cadence_spi4x_func
                0x00000000180100b8                cadence_plat
                0x00000000180100f8                . = ALIGN (0x8)
                [!provide]                        PROVIDE (_ebss = .)
                [!provide]                        PROVIDE (_end = .)
                0x00000000180100f8                PROVIDE (_bss_end = .)
                0x0000000018012158                PROVIDE (_sp = ALIGN ((MIN ((ORIGIN (ram) + LENGTH (ram)), (_bss_end + 0x2064)) - 0x7), 0x8))
                [!provide]                        PROVIDE (_heap_end = (_sp - 0x100))

.stack          0x00000000180100f8        0x0
                0x0000000000000001                ASSERT ((_sp >= (_bss_end + 0x1000)), Error: No room left for the heap and stack)
OUTPUT(bootloader.elf elf64-littleriscv)

.riscv.attributes
                0x0000000000000000       0x35
 .riscv.attributes
                0x0000000000000000       0x33 ../boot/start.o
 .riscv.attributes
                0x0000000000000033       0x35 ../boot/bootmain.o
 .riscv.attributes
                0x0000000000000068       0x35 ../boot/trap.o
 .riscv.attributes
                0x000000000000009d       0x35 ../uart/uart.o
 .riscv.attributes
                0x00000000000000d2       0x35 ../common/util.o
 .riscv.attributes
                0x0000000000000107       0x35 ../spi/spi.o
 .riscv.attributes
                0x000000000000013c       0x35 ../spi/spi_probe.o
 .riscv.attributes
                0x0000000000000171       0x35 ../spi/cadence_qspi.o
 .riscv.attributes
                0x00000000000001a6       0x35 ../spi/spi_flash.o
 .riscv.attributes
                0x00000000000001db       0x35 ../spi/cadence_qspi_apb.o
 .riscv.attributes
                0x0000000000000210       0x35 ../timer/timer.o

.comment        0x0000000000000000       0x28
 .comment       0x0000000000000000       0x28 ../boot/bootmain.o
                                         0x29 (size before relaxing)
 .comment       0x0000000000000028       0x29 ../boot/trap.o
 .comment       0x0000000000000028       0x29 ../uart/uart.o
 .comment       0x0000000000000028       0x29 ../common/util.o
 .comment       0x0000000000000028       0x29 ../spi/spi.o
 .comment       0x0000000000000028       0x29 ../spi/spi_probe.o
 .comment       0x0000000000000028       0x29 ../spi/cadence_qspi.o
 .comment       0x0000000000000028       0x29 ../spi/spi_flash.o
 .comment       0x0000000000000028       0x29 ../spi/cadence_qspi_apb.o
 .comment       0x0000000000000028       0x29 ../timer/timer.o

.debug_line     0x0000000000000000     0x693f
 .debug_line    0x0000000000000000      0x18e ../boot/start.o
 .debug_line    0x000000000000018e      0x4b1 ../boot/bootmain.o
 .debug_line    0x000000000000063f      0x105 ../boot/trap.o
 .debug_line    0x0000000000000744     0x1c00 ../uart/uart.o
 .debug_line    0x0000000000002344      0x2b8 ../common/util.o
 .debug_line    0x00000000000025fc      0x1a5 ../spi/spi.o
 .debug_line    0x00000000000027a1      0x3ba ../spi/spi_probe.o
 .debug_line    0x0000000000002b5b      0xb4a ../spi/cadence_qspi.o
 .debug_line    0x00000000000036a5     0x123a ../spi/spi_flash.o
 .debug_line    0x00000000000048df     0x1f36 ../spi/cadence_qspi_apb.o
 .debug_line    0x0000000000006815      0x12a ../timer/timer.o

.debug_info     0x0000000000000000     0x820b
 .debug_info    0x0000000000000000       0x2e ../boot/start.o
 .debug_info    0x000000000000002e      0x893 ../boot/bootmain.o
 .debug_info    0x00000000000008c1      0x1d6 ../boot/trap.o
 .debug_info    0x0000000000000a97     0x18b3 ../uart/uart.o
 .debug_info    0x000000000000234a      0x2fc ../common/util.o
 .debug_info    0x0000000000002646      0x315 ../spi/spi.o
 .debug_info    0x000000000000295b      0x566 ../spi/spi_probe.o
 .debug_info    0x0000000000002ec1      0xd0f ../spi/cadence_qspi.o
 .debug_info    0x0000000000003bd0     0x2076 ../spi/spi_flash.o
 .debug_info    0x0000000000005c46     0x23d1 ../spi/cadence_qspi_apb.o
 .debug_info    0x0000000000008017      0x1f4 ../timer/timer.o

.debug_abbrev   0x0000000000000000     0x17d9
 .debug_abbrev  0x0000000000000000       0x14 ../boot/start.o
 .debug_abbrev  0x0000000000000014      0x2f5 ../boot/bootmain.o
 .debug_abbrev  0x0000000000000309      0x10a ../boot/trap.o
 .debug_abbrev  0x0000000000000413      0x372 ../uart/uart.o
 .debug_abbrev  0x0000000000000785      0x115 ../common/util.o
 .debug_abbrev  0x000000000000089a      0x175 ../spi/spi.o
 .debug_abbrev  0x0000000000000a0f      0x213 ../spi/spi_probe.o
 .debug_abbrev  0x0000000000000c22      0x2e4 ../spi/cadence_qspi.o
 .debug_abbrev  0x0000000000000f06      0x3f7 ../spi/spi_flash.o
 .debug_abbrev  0x00000000000012fd      0x3a1 ../spi/cadence_qspi_apb.o
 .debug_abbrev  0x000000000000169e      0x13b ../timer/timer.o

.debug_aranges  0x0000000000000000      0x210
 .debug_aranges
                0x0000000000000000       0x30 ../boot/start.o
 .debug_aranges
                0x0000000000000030       0x30 ../boot/bootmain.o
 .debug_aranges
                0x0000000000000060       0x30 ../boot/trap.o
 .debug_aranges
                0x0000000000000090       0x30 ../uart/uart.o
 .debug_aranges
                0x00000000000000c0       0x30 ../common/util.o
 .debug_aranges
                0x00000000000000f0       0x30 ../spi/spi.o
 .debug_aranges
                0x0000000000000120       0x30 ../spi/spi_probe.o
 .debug_aranges
                0x0000000000000150       0x30 ../spi/cadence_qspi.o
 .debug_aranges
                0x0000000000000180       0x30 ../spi/spi_flash.o
 .debug_aranges
                0x00000000000001b0       0x30 ../spi/cadence_qspi_apb.o
 .debug_aranges
                0x00000000000001e0       0x30 ../timer/timer.o

.debug_str      0x0000000000000000      0xe1f
 .debug_str     0x0000000000000000       0x38 ../boot/start.o
 .debug_str     0x0000000000000038      0x1de ../boot/bootmain.o
                                        0x264 (size before relaxing)
 .debug_str     0x0000000000000216       0x42 ../boot/trap.o
                                        0x10c (size before relaxing)
 .debug_str     0x0000000000000258      0x128 ../uart/uart.o
                                        0x25a (size before relaxing)
 .debug_str     0x0000000000000380       0x63 ../common/util.o
                                        0x13e (size before relaxing)
 .debug_str     0x00000000000003e3       0x74 ../spi/spi.o
                                        0x17f (size before relaxing)
 .debug_str     0x0000000000000457       0xe1 ../spi/spi_probe.o
                                        0x250 (size before relaxing)
 .debug_str     0x0000000000000538      0x397 ../spi/cadence_qspi.o
                                        0x560 (size before relaxing)
 .debug_str     0x00000000000008cf      0x2bb ../spi/spi_flash.o
                                        0x443 (size before relaxing)
 .debug_str     0x0000000000000b8a      0x26c ../spi/cadence_qspi_apb.o
                                        0x5ea (size before relaxing)
 .debug_str     0x0000000000000df6       0x29 ../timer/timer.o
                                         0xfe (size before relaxing)

.debug_loc      0x0000000000000000     0xafb0
 .debug_loc     0x0000000000000000      0x5f7 ../boot/bootmain.o
 .debug_loc     0x00000000000005f7       0xfe ../boot/trap.o
 .debug_loc     0x00000000000006f5     0x23d3 ../uart/uart.o
 .debug_loc     0x0000000000002ac8      0x5a2 ../common/util.o
 .debug_loc     0x000000000000306a      0x42f ../spi/spi.o
 .debug_loc     0x0000000000003499      0x427 ../spi/spi_probe.o
 .debug_loc     0x00000000000038c0      0xef5 ../spi/cadence_qspi.o
 .debug_loc     0x00000000000047b5     0x323b ../spi/spi_flash.o
 .debug_loc     0x00000000000079f0     0x34ec ../spi/cadence_qspi_apb.o
 .debug_loc     0x000000000000aedc       0xd4 ../timer/timer.o

.debug_ranges   0x0000000000000000     0x1dc0
 .debug_ranges  0x0000000000000000      0x120 ../boot/bootmain.o
 .debug_ranges  0x0000000000000120      0x890 ../uart/uart.o
 .debug_ranges  0x00000000000009b0       0x20 ../common/util.o
 .debug_ranges  0x00000000000009d0       0xf0 ../spi/cadence_qspi.o
 .debug_ranges  0x0000000000000ac0      0x910 ../spi/spi_flash.o
 .debug_ranges  0x00000000000013d0      0x9f0 ../spi/cadence_qspi_apb.o

.debug_frame    0x0000000000000000      0xc58
 .debug_frame   0x0000000000000000       0xe0 ../boot/bootmain.o
 .debug_frame   0x00000000000000e0       0x50 ../boot/trap.o
 .debug_frame   0x0000000000000130      0x1c8 ../uart/uart.o
 .debug_frame   0x00000000000002f8       0xa0 ../common/util.o
 .debug_frame   0x0000000000000398       0x70 ../spi/spi.o
 .debug_frame   0x0000000000000408       0x60 ../spi/spi_probe.o
 .debug_frame   0x0000000000000468      0x108 ../spi/cadence_qspi.o
 .debug_frame   0x0000000000000570      0x438 ../spi/spi_flash.o
 .debug_frame   0x00000000000009a8      0x270 ../spi/cadence_qspi_apb.o
 .debug_frame   0x0000000000000c18       0x40 ../timer/timer.o
